target datalayout = "e-m:e-p270:32:32-p271:32:32-p272:64:64-i64:64-i128:128-f80:128-n8:16:32:64-S128"
target triple = "x86_64-unknown-linux-gnu"

; Function Attrs: mustprogress nounwind uwtable
define noundef zeroext i1 @_ZN18OpenImageIO_v2_6_018wrap_periodic_pow2ERiii(ptr noundef nonnull align 4 dereferenceable(4) %coord, i32 noundef %origin, i32 noundef %width) #4 {
entry:
  %coord.addr = alloca ptr, align 8
  %origin.addr = alloca i32, align 4
  %width.addr = alloca i32, align 4
  store ptr %coord, ptr %coord.addr, align 8
  store i32 %origin, ptr %origin.addr, align 4
  store i32 %width, ptr %width.addr, align 4
  %0 = load i32, ptr %origin.addr, align 4
  %1 = load ptr, ptr %coord.addr, align 8
  %2 = load i32, ptr %1, align 4
  %sub = sub nsw i32 %2, %0
  store i32 %sub, ptr %1, align 4
  %3 = load i32, ptr %width.addr, align 4
  %sub1 = sub nsw i32 %3, 1
  %4 = load ptr, ptr %coord.addr, align 8
  %5 = load i32, ptr %4, align 4
  %and = and i32 %5, %sub1
  store i32 %and, ptr %4, align 4
  %6 = load i32, ptr %origin.addr, align 4
  %7 = load ptr, ptr %coord.addr, align 8
  %8 = load i32, ptr %7, align 4
  %add = add nsw i32 %8, %6
  store i32 %add, ptr %7, align 4
  ret i1 true
}