; Function Attrs: mustprogress nofree norecurse nosync nounwind willreturn memory(argmem: readwrite) uwtable
define noundef zeroext i1 @_ZN18OpenImageIO_v2_6_018wrap_periodic_pow2ERiii(ptr nocapture noundef nonnull align 4 dereferenceable(4) %coord, i32 noundef %origin, i32 noundef %width) local_unnamed_addr #20 {
entry:
  %0 = load i32, ptr %coord, align 4
  %sub = sub nsw i32 %0, %origin
  %sub1 = add nsw i32 %width, -1
  %and = and i32 %sub, %sub1
  %add = add nsw i32 %and, %origin
  store i32 %add, ptr %coord, align 4
  ret i1 true
}